; Function Attrs: mustprogress uwtable
define void @_ZN12llama_sbatch9split_seqEm(ptr dead_on_unwind noalias writable sret(%struct.llama_ubatch) align 8 captures(none) %0, ptr noundef nonnull align 8 dereferenceable(248) %1, i64 noundef %2) local_unnamed_addr #0 align 2 {
  %4 = load i64, ptr %1, align 8, !tbaa !98
  %. = tail call i64 @llvm.umin.i64(i64 %4, i64 %2)
  %5 = getelementptr inbounds nuw i8, ptr %1, i64 96
  %6 = load ptr, ptr %5, align 8, !tbaa !47
  %7 = getelementptr inbounds nuw i8, ptr %6, i64 16
  %8 = load ptr, ptr %7, align 8, !tbaa !80
  %9 = icmp ne ptr %8, null
  tail call void @_ZN12llama_sbatch14reserve_ubatchEmb(ptr dead_on_unwind writable sret(%struct.llama_ubatch) align 8 %0, ptr noundef nonnull align 8 dereferenceable(248) %1, i64 noundef %., i1 noundef zeroext %9)
  %10 = getelementptr inbounds nuw i8, ptr %1, i64 72
  %11 = load ptr, ptr %10, align 8, !tbaa !99
  %12 = getelementptr inbounds nuw i8, ptr %1, i64 80
  %13 = load ptr, ptr %12, align 8, !tbaa !99
  %14 = icmp eq ptr %11, %13
  br i1 %14, label %27, label %15

15:                                               ; preds = %3
  %16 = ptrtoint ptr %13 to i64
  %17 = ptrtoint ptr %11 to i64
  %18 = sub i64 %16, %17
  %19 = getelementptr i8, ptr %11, i64 %18
  %20 = getelementptr i8, ptr %19, i64 -32
  %21 = load i32, ptr %20, align 8, !tbaa !70
  %22 = icmp sgt i32 %21, 0
  br i1 %22, label %24, label %23

23:                                               ; preds = %15
  tail call void (ptr, i32, ptr, ...) @ggml_abort(ptr noundef nonnull @.str, i32 noundef 186, ptr noundef nonnull @.str.1, ptr noundef nonnull @.str.10) #17
  unreachable

24:                                               ; preds = %15
  %25 = getelementptr i8, ptr %19, i64 -8
  %26 = load i64, ptr %25, align 8, !tbaa !10
  %.. = tail call i64 @llvm.umin.i64(i64 %26, i64 %.)
  tail call void @_ZN12llama_sbatch17add_seq_to_ubatchER12llama_ubatchR16llama_sbatch_seqm(ptr noundef nonnull align 8 dereferenceable(248) %1, ptr noundef nonnull align 8 dereferenceable(64) %0, ptr noundef nonnull align 8 dereferenceable(32) %20, i64 noundef %..)
  br label %27

27:                                               ; preds = %24, %3
  ret void
}